target datalayout = "e-m:e-p270:32:32-p271:32:32-p272:64:64-i64:64-i128:128-f80:128-n8:16:32:64-S128"
target triple = "x86_64-pc-linux-gnu"

%struct.AVOption = type { ptr, ptr, i32, i32, %union.anon, double, double, i32, ptr }
%union.anon = type { i64 }

@.str.1 = private unnamed_addr constant [6 x i8] c"pixel\00", align 1
@.str.66 = private unnamed_addr constant [47 x i8] c"The value for option '%s' is not a %s format.\0A\00", align 1

; Function Attrs: nounwind uwtable
define internal i32 @get_format(ptr noundef %0, ptr noundef %1, i32 noundef %2, ptr noundef %3, i32 noundef %4, ptr noundef %5) #0 {
  %7 = alloca i32, align 4
  %8 = alloca ptr, align 8
  %9 = alloca ptr, align 8
  %10 = alloca i32, align 4
  %11 = alloca ptr, align 8
  %12 = alloca i32, align 4
  %13 = alloca ptr, align 8
  %14 = alloca ptr, align 8
  %15 = alloca ptr, align 8
  %16 = alloca ptr, align 8
  %17 = alloca i32, align 4
  store ptr %0, ptr %8, align 8, !tbaa !4
  store ptr %1, ptr %9, align 8, !tbaa !19
  store i32 %2, ptr %10, align 4, !tbaa !20
  store ptr %3, ptr %11, align 8, !tbaa !30
  store i32 %4, ptr %12, align 4, !tbaa !20
  store ptr %5, ptr %13, align 8, !tbaa !19
  call void @llvm.lifetime.start.p0(i64 8, ptr %14) #11
  call void @llvm.lifetime.start.p0(i64 8, ptr %15) #11
  call void @llvm.lifetime.start.p0(i64 8, ptr %16) #11
  %18 = load ptr, ptr %8, align 8, !tbaa !4
  %19 = load ptr, ptr %9, align 8, !tbaa !19
  %20 = load i32, ptr %10, align 4, !tbaa !20
  %21 = call ptr @av_opt_find2(ptr noundef %18, ptr noundef %19, ptr noundef null, i32 noundef 0, i32 noundef %20, ptr noundef %15)
  store ptr %21, ptr %16, align 8, !tbaa !8
  %22 = load ptr, ptr %16, align 8, !tbaa !8
  %23 = icmp ne ptr %22, null
  br i1 %23, label %24, label %27

24:                                               ; preds = %6
  %25 = load ptr, ptr %15, align 8, !tbaa !4
  %26 = icmp ne ptr %25, null
  br i1 %26, label %28, label %27

27:                                               ; preds = %24, %6
  store i32 -1414549496, ptr %7, align 4
  store i32 1, ptr %17, align 4
  br label %48

28:                                               ; preds = %24
  %29 = load ptr, ptr %16, align 8, !tbaa !8
  %30 = getelementptr inbounds nuw %struct.AVOption, ptr %29, i32 0, i32 3
  %31 = load i32, ptr %30, align 4, !tbaa !21
  %32 = load i32, ptr %12, align 4, !tbaa !20
  %33 = icmp ne i32 %31, %32
  br i1 %33, label %34, label %38

34:                                               ; preds = %28
  %35 = load ptr, ptr %8, align 8, !tbaa !4
  %36 = load ptr, ptr %13, align 8, !tbaa !19
  %37 = load ptr, ptr %9, align 8, !tbaa !19
  call void (ptr, i32, ptr, ...) @av_log(ptr noundef %35, i32 noundef 16, ptr noundef @.str.66, ptr noundef %36, ptr noundef %37)
  store i32 -22, ptr %7, align 4
  store i32 1, ptr %17, align 4
  br label %48

38:                                               ; preds = %28
  %39 = load ptr, ptr %15, align 8, !tbaa !4
  %40 = load ptr, ptr %16, align 8, !tbaa !8
  %41 = getelementptr inbounds nuw %struct.AVOption, ptr %40, i32 0, i32 2
  %42 = load i32, ptr %41, align 8, !tbaa !34
  %43 = sext i32 %42 to i64
  %44 = getelementptr inbounds i8, ptr %39, i64 %43
  store ptr %44, ptr %14, align 8, !tbaa !4
  %45 = load ptr, ptr %14, align 8, !tbaa !4
  %46 = load i32, ptr %45, align 4, !tbaa !20
  %47 = load ptr, ptr %11, align 8, !tbaa !30
  store i32 %46, ptr %47, align 4, !tbaa !20
  store i32 0, ptr %7, align 4
  store i32 1, ptr %17, align 4
  br label %48

48:                                               ; preds = %38, %34, %27
  call void @llvm.lifetime.end.p0(i64 8, ptr %16) #11
  call void @llvm.lifetime.end.p0(i64 8, ptr %15) #11
  call void @llvm.lifetime.end.p0(i64 8, ptr %14) #11
  %49 = load i32, ptr %7, align 4
  ret i32 %49
}

; Function Attrs: nounwind uwtable
define i32 @av_opt_get_pixel_fmt(ptr noundef %0, ptr noundef %1, i32 noundef %2, ptr noundef %3) #0 {
  %5 = alloca ptr, align 8
  %6 = alloca ptr, align 8
  %7 = alloca i32, align 4
  %8 = alloca ptr, align 8
  store ptr %0, ptr %5, align 8, !tbaa !4
  store ptr %1, ptr %6, align 8, !tbaa !19
  store i32 %2, ptr %7, align 4, !tbaa !20
  store ptr %3, ptr %8, align 8, !tbaa !4
  %9 = load ptr, ptr %5, align 8, !tbaa !4
  %10 = load ptr, ptr %6, align 8, !tbaa !19
  %11 = load i32, ptr %7, align 4, !tbaa !20
  %12 = load ptr, ptr %8, align 8, !tbaa !4
  %13 = call i32 @get_format(ptr noundef %9, ptr noundef %10, i32 noundef %11, ptr noundef %12, i32 noundef 13, ptr noundef @.str.1)
  ret i32 %13
}