; Function Attrs: nounwind uwtable
define range(i32 -1414549496, 1) i32 @av_opt_get_pixel_fmt(ptr noundef %0, ptr noundef %1, i32 noundef %2, ptr noundef writeonly captures(none) %3) local_unnamed_addr #2 {
  %5 = alloca ptr, align 8
  call void @llvm.lifetime.start.p0(i64 8, ptr nonnull %5) #18
  %6 = call ptr @av_opt_find2(ptr noundef %0, ptr noundef %1, ptr noundef null, i32 noundef 0, i32 noundef %2, ptr noundef nonnull %5)
  %7 = icmp ne ptr %6, null
  %8 = load ptr, ptr %5, align 8
  %9 = icmp ne ptr %8, null
  %or.cond.i = select i1 %7, i1 %9, i1 false
  br i1 %or.cond.i, label %10, label %get_format.exit

10:                                               ; preds = %4
  %11 = getelementptr inbounds nuw i8, ptr %6, i64 20
  %12 = load i32, ptr %11, align 4, !tbaa !18
  %.not.i = icmp eq i32 %12, 13
  br i1 %.not.i, label %14, label %13

13:                                               ; preds = %10
  call void (ptr, i32, ptr, ...) @av_log(ptr noundef %0, i32 noundef 16, ptr noundef nonnull @.str.66, ptr noundef nonnull @.str.1, ptr noundef %1) #18
  br label %get_format.exit

14:                                               ; preds = %10
  %15 = getelementptr inbounds nuw i8, ptr %6, i64 16
  %16 = load i32, ptr %15, align 8, !tbaa !28
  %17 = sext i32 %16 to i64
  %18 = getelementptr inbounds i8, ptr %8, i64 %17
  %19 = load i32, ptr %18, align 4, !tbaa !26
  store i32 %19, ptr %3, align 4, !tbaa !26
  br label %get_format.exit

get_format.exit:                                  ; preds = %4, %13, %14
  %.0.i = phi i32 [ -22, %13 ], [ 0, %14 ], [ -1414549496, %4 ]
  call void @llvm.lifetime.end.p0(i64 8, ptr nonnull %5) #18
  ret i32 %.0.i
}